target datalayout = "e-m:e-p270:32:32-p271:32:32-p272:64:64-i64:64-i128:128-f80:128-n8:16:32:64-S128"
target triple = "x86_64-pc-linux-gnu"

%struct.SDL_HIDAPI_Device = type { ptr, ptr, ptr, ptr, i16, i16, i16, ptr, %struct.SDL_GUID, i32, i32, i32, i32, i16, i16, i8, i32, i32, i32, ptr, ptr, ptr, ptr, %struct.SDL_AtomicInt, i32, ptr, i8, i8, i8, ptr, i32, ptr, ptr }
%struct.SDL_GUID = type { [16 x i8] }
%struct.SDL_AtomicInt = type { i32 }
%struct.SDL_DriverPS3_Context = type { ptr, ptr, i8, i8, i8, i8, i32, i8, i8, [64 x i8] }

@.str.6 = private unnamed_addr constant [15 x i8] c"PS3 Controller\00", align 1
@.str.10 = private unnamed_addr constant [100 x i8] c"HIDAPI_DriverPS3SonySixaxis_InitDevice(): Couldn't read feature report 0xf2. Trying again with 0x0.\00", align 1
@.str.11 = private unnamed_addr constant [77 x i8] c"HIDAPI_DriverPS3SonySixaxis_InitDevice(): Couldn't read feature report 0x00.\00", align 1

; Function Attrs: nounwind uwtable
define internal i32 @ReadFeatureReport(ptr noundef %0, i8 noundef zeroext %1, ptr noundef %2, i64 noundef %3) #0 {
  %5 = alloca ptr, align 8
  %6 = alloca i8, align 1
  %7 = alloca ptr, align 8
  %8 = alloca i64, align 8
  store ptr %0, ptr %5, align 8
  store i8 %1, ptr %6, align 1
  store ptr %2, ptr %7, align 8
  store i64 %3, ptr %8, align 8
  %9 = load ptr, ptr %7, align 8
  %10 = load i64, ptr %8, align 8
  call void @llvm.memset.p0.i64(ptr align 1 %9, i8 0, i64 %10, i1 false)
  %11 = load i8, ptr %6, align 1
  %12 = load ptr, ptr %7, align 8
  %13 = getelementptr inbounds i8, ptr %12, i64 0
  store i8 %11, ptr %13, align 1
  %14 = load ptr, ptr %5, align 8
  %15 = load ptr, ptr %7, align 8
  %16 = load i64, ptr %8, align 8
  %17 = call i32 @SDL_hid_get_feature_report_REAL(ptr noundef %14, ptr noundef %15, i64 noundef %16)
  ret i32 %17
}

; Function Attrs: nounwind uwtable
define internal zeroext i1 @HIDAPI_DriverPS3SonySixaxis_InitDevice(ptr noundef %0) #0 {
  %2 = alloca i1, align 1
  %3 = alloca ptr, align 8
  %4 = alloca ptr, align 8
  %5 = alloca i32, align 4
  %6 = alloca [64 x i8], align 16
  %7 = alloca i32, align 4
  store ptr %0, ptr %3, align 8
  call void @llvm.lifetime.start.p0(i64 8, ptr %4) #7
  %8 = call noalias ptr @SDL_calloc_REAL(i64 noundef 1, i64 noundef 96) #8
  store ptr %8, ptr %4, align 8
  %9 = load ptr, ptr %4, align 8
  %10 = icmp ne ptr %9, null
  br i1 %10, label %12, label %11

11:                                               ; preds = %1
  store i1 false, ptr %2, align 1
  store i32 1, ptr %5, align 4
  br label %46

12:                                               ; preds = %1
  %13 = load ptr, ptr %3, align 8
  %14 = load ptr, ptr %4, align 8
  %15 = getelementptr inbounds nuw %struct.SDL_DriverPS3_Context, ptr %14, i32 0, i32 0
  store ptr %13, ptr %15, align 8
  %16 = load ptr, ptr %4, align 8
  %17 = getelementptr inbounds nuw %struct.SDL_DriverPS3_Context, ptr %16, i32 0, i32 3
  store i8 1, ptr %17, align 1
  %18 = load ptr, ptr %4, align 8
  %19 = load ptr, ptr %3, align 8
  %20 = getelementptr inbounds nuw %struct.SDL_HIDAPI_Device, ptr %19, i32 0, i32 20
  store ptr %18, ptr %20, align 8
  call void @llvm.lifetime.start.p0(i64 64, ptr %6) #7
  call void @llvm.lifetime.start.p0(i64 4, ptr %7) #7
  %21 = load ptr, ptr %3, align 8
  %22 = getelementptr inbounds nuw %struct.SDL_HIDAPI_Device, ptr %21, i32 0, i32 22
  %23 = load ptr, ptr %22, align 8
  %24 = getelementptr inbounds [64 x i8], ptr %6, i64 0, i64 0
  %25 = call i32 @ReadFeatureReport(ptr noundef %23, i8 noundef zeroext -14, ptr noundef %24, i64 noundef 64)
  store i32 %25, ptr %7, align 4
  %26 = load i32, ptr %7, align 4
  %27 = icmp slt i32 %26, 0
  br i1 %27, label %28, label %39

28:                                               ; preds = %12
  call void (i32, ptr, ...) @SDL_LogDebug_REAL(i32 noundef 7, ptr noundef @.str.10)
  %29 = getelementptr inbounds [64 x i8], ptr %6, i64 0, i64 0
  call void @llvm.memset.p0.i64(ptr align 16 %29, i8 0, i64 64, i1 false)
  %30 = load ptr, ptr %3, align 8
  %31 = getelementptr inbounds nuw %struct.SDL_HIDAPI_Device, ptr %30, i32 0, i32 22
  %32 = load ptr, ptr %31, align 8
  %33 = getelementptr inbounds [64 x i8], ptr %6, i64 0, i64 0
  %34 = call i32 @ReadFeatureReport(ptr noundef %32, i8 noundef zeroext 0, ptr noundef %33, i64 noundef 64)
  store i32 %34, ptr %7, align 4
  %35 = load i32, ptr %7, align 4
  %36 = icmp slt i32 %35, 0
  br i1 %36, label %37, label %38

37:                                               ; preds = %28
  call void (i32, ptr, ...) @SDL_LogDebug_REAL(i32 noundef 7, ptr noundef @.str.11)
  store i1 false, ptr %2, align 1
  store i32 1, ptr %5, align 4
  br label %45

38:                                               ; preds = %28
  br label %39

39:                                               ; preds = %38, %12
  %40 = load ptr, ptr %3, align 8
  %41 = getelementptr inbounds nuw %struct.SDL_HIDAPI_Device, ptr %40, i32 0, i32 17
  store i32 4, ptr %41, align 4
  %42 = load ptr, ptr %3, align 8
  call void @HIDAPI_SetDeviceName(ptr noundef %42, ptr noundef @.str.6)
  %43 = load ptr, ptr %3, align 8
  %44 = call zeroext i1 @HIDAPI_JoystickConnected(ptr noundef %43, ptr noundef null)
  store i1 %44, ptr %2, align 1
  store i32 1, ptr %5, align 4
  br label %45

45:                                               ; preds = %39, %37
  call void @llvm.lifetime.end.p0(i64 4, ptr %7) #7
  call void @llvm.lifetime.end.p0(i64 64, ptr %6) #7
  br label %46

46:                                               ; preds = %45, %11
  call void @llvm.lifetime.end.p0(i64 8, ptr %4) #7
  %47 = load i1, ptr %2, align 1
  ret i1 %47
}