; Function Attrs: nounwind uwtable
define internal zeroext i1 @HIDAPI_DriverPS3SonySixaxis_InitDevice(ptr noundef %0) #0 {
  %2 = alloca [64 x i8], align 16
  %3 = tail call noalias dereferenceable_or_null(96) ptr @SDL_calloc_REAL(i64 noundef 1, i64 noundef 96) #11
  %.not = icmp eq ptr %3, null
  br i1 %.not, label %20, label %4

4:                                                ; preds = %1
  store ptr %0, ptr %3, align 8
  %5 = getelementptr inbounds nuw i8, ptr %3, i64 17
  store i8 1, ptr %5, align 1
  %6 = getelementptr inbounds nuw i8, ptr %0, i64 112
  store ptr %3, ptr %6, align 8
  call void @llvm.lifetime.start.p0(i64 64, ptr nonnull %2) #10
  %7 = getelementptr inbounds nuw i8, ptr %0, i64 128
  %8 = load ptr, ptr %7, align 8
  call void @llvm.memset.p0.i64(ptr noundef nonnull align 16 dereferenceable(64) %2, i8 0, i64 64, i1 false)
  store i8 -14, ptr %2, align 16
  %9 = call i32 @SDL_hid_get_feature_report_REAL(ptr noundef %8, ptr noundef nonnull %2, i64 noundef 64) #10
  %10 = icmp slt i32 %9, 0
  br i1 %10, label %11, label %16

11:                                               ; preds = %4
  call void (i32, ptr, ...) @SDL_LogDebug_REAL(i32 noundef 7, ptr noundef nonnull @.str.10) #10
  %12 = load ptr, ptr %7, align 8
  call void @llvm.memset.p0.i64(ptr noundef nonnull align 16 dereferenceable(64) %2, i8 0, i64 64, i1 false)
  %13 = call i32 @SDL_hid_get_feature_report_REAL(ptr noundef %12, ptr noundef nonnull %2, i64 noundef 64) #10
  %14 = icmp slt i32 %13, 0
  br i1 %14, label %15, label %16

15:                                               ; preds = %11
  call void (i32, ptr, ...) @SDL_LogDebug_REAL(i32 noundef 7, ptr noundef nonnull @.str.11) #10
  br label %19

16:                                               ; preds = %11, %4
  %17 = getelementptr inbounds nuw i8, ptr %0, i64 92
  store i32 4, ptr %17, align 4
  call void @HIDAPI_SetDeviceName(ptr noundef nonnull %0, ptr noundef nonnull @.str.6) #10
  %18 = call zeroext i1 @HIDAPI_JoystickConnected(ptr noundef nonnull %0, ptr noundef null) #10
  br label %19

19:                                               ; preds = %16, %15
  %.1 = phi i1 [ false, %15 ], [ %18, %16 ]
  call void @llvm.lifetime.end.p0(i64 64, ptr nonnull %2) #10
  br label %20

20:                                               ; preds = %1, %19
  %.0 = phi i1 [ %.1, %19 ], [ false, %1 ]
  ret i1 %.0
}